target datalayout = "e-m:e-p270:32:32-p271:32:32-p272:64:64-i64:64-i128:128-f80:128-n8:16:32:64-S128"
target triple = "x86_64-pc-linux-gnu"

%struct.sharedObjectsStruct = type { ptr, ptr, ptr, ptr, ptr, ptr, ptr, ptr, [4 x ptr], [4 x ptr], [4 x ptr], [4 x ptr], ptr, ptr, ptr, ptr, ptr, ptr, ptr, ptr, ptr, ptr, ptr, ptr, ptr, ptr, ptr, ptr, ptr, ptr, ptr, ptr, ptr, ptr, ptr, ptr, ptr, ptr, ptr, ptr, ptr, ptr, ptr, ptr, ptr, ptr, ptr, ptr, ptr, ptr, ptr, ptr, ptr, ptr, ptr, ptr, ptr, ptr, ptr, ptr, ptr, ptr, ptr, ptr, ptr, ptr, ptr, ptr, ptr, ptr, ptr, ptr, ptr, ptr, ptr, ptr, ptr, ptr, ptr, ptr, ptr, ptr, ptr, ptr, ptr, ptr, ptr, ptr, [10 x ptr], [10000 x ptr], [32 x ptr], [32 x ptr], [32 x ptr], [32 x ptr], ptr, ptr }
%struct.zskiplist = type { ptr, ptr, i64, i32 }
%struct.redisObject = type { i32, i32, ptr }
%struct.zset = type { ptr, ptr }
%struct.client = type { i64, i64, ptr, i8, i8, i8, i8, i32, ptr, ptr, ptr, ptr, ptr, i64, i64, i32, ptr, i32, i32, ptr, i64, ptr, ptr, ptr, ptr, ptr, i32, i32, i64, ptr, i64, ptr, i64, i64, i64, i32, ptr, i64, i64, i32, i32, i32, i32, i64, i64, ptr, i64, i64, i64, i64, i64, i64, i64, i64, [41 x i8], i32, ptr, i32, i32, i64, %struct.multiState, %struct.blockingState, i64, ptr, ptr, ptr, ptr, ptr, ptr, ptr, ptr, ptr, ptr, ptr, ptr, ptr, ptr, i64, ptr, i64, i32, ptr, ptr, ptr, i64, %struct.listNode, i64, i64, i32, i64, ptr }
%struct.multiState = type { ptr, i32, i32, i32, i64, i32 }
%struct.blockingState = type { i32, i64, i32, ptr, i32, i32, i64, ptr, ptr, i64 }
%struct.listNode = type { ptr, ptr, ptr }

@.str.1 = private unnamed_addr constant [9 x i8] c"t_zset.c\00", align 1
@shared = external global %struct.sharedObjectsStruct, align 8
@.str.9 = private unnamed_addr constant [28 x i8] c"Unknown sorted set encoding\00", align 1

; Function Attrs: nounwind uwtable
define dso_local i32 @zzlLength(ptr noundef %0) #0 {
  %2 = alloca ptr, align 8
  store ptr %0, ptr %2, align 8, !tbaa !11
  %3 = load ptr, ptr %2, align 8, !tbaa !11
  %4 = call i64 @lpLength(ptr noundef %3)
  %5 = udiv i64 %4, 2
  %6 = trunc i64 %5 to i32
  ret i32 %6
}

; Function Attrs: nounwind uwtable
define dso_local i64 @zsetLength(ptr noundef %0) #0 {
  %2 = alloca ptr, align 8
  %3 = alloca i64, align 8
  store ptr %0, ptr %2, align 8, !tbaa !78
  call void @llvm.lifetime.start.p0(i64 8, ptr %3) #12
  store i64 0, ptr %3, align 8, !tbaa !31
  %4 = load ptr, ptr %2, align 8, !tbaa !78
  %5 = load i32, ptr %4, align 8
  %6 = lshr i32 %5, 4
  %7 = and i32 %6, 15
  %8 = icmp eq i32 %7, 11
  br i1 %8, label %9, label %15

9:                                                ; preds = %1
  %10 = load ptr, ptr %2, align 8, !tbaa !78
  %11 = getelementptr inbounds nuw %struct.redisObject, ptr %10, i32 0, i32 2
  %12 = load ptr, ptr %11, align 8, !tbaa !84
  %13 = call i32 @zzlLength(ptr noundef %12)
  %14 = zext i32 %13 to i64
  store i64 %14, ptr %3, align 8, !tbaa !31
  br label %31

15:                                               ; preds = %1
  %16 = load ptr, ptr %2, align 8, !tbaa !78
  %17 = load i32, ptr %16, align 8
  %18 = lshr i32 %17, 4
  %19 = and i32 %18, 15
  %20 = icmp eq i32 %19, 7
  br i1 %20, label %21, label %29

21:                                               ; preds = %15
  %22 = load ptr, ptr %2, align 8, !tbaa !78
  %23 = getelementptr inbounds nuw %struct.redisObject, ptr %22, i32 0, i32 2
  %24 = load ptr, ptr %23, align 8, !tbaa !84
  %25 = getelementptr inbounds nuw %struct.zset, ptr %24, i32 0, i32 1
  %26 = load ptr, ptr %25, align 8, !tbaa !112
  %27 = getelementptr inbounds nuw %struct.zskiplist, ptr %26, i32 0, i32 2
  %28 = load i64, ptr %27, align 8, !tbaa !21
  store i64 %28, ptr %3, align 8, !tbaa !31
  br label %30

29:                                               ; preds = %15
  call void (ptr, i32, ptr, ...) @_serverPanic(ptr noundef @.str.1, i32 noundef 1210, ptr noundef @.str.9)
  call void @abort() #14
  unreachable

30:                                               ; preds = %21
  br label %31

31:                                               ; preds = %30, %9
  %32 = load i64, ptr %3, align 8, !tbaa !31
  call void @llvm.lifetime.end.p0(i64 8, ptr %3) #12
  ret i64 %32
}

; Function Attrs: nounwind uwtable
define dso_local void @zcardCommand(ptr noundef %0) #0 {
  %2 = alloca ptr, align 8
  %3 = alloca ptr, align 8
  %4 = alloca ptr, align 8
  %5 = alloca i32, align 4
  store ptr %0, ptr %2, align 8, !tbaa !150
  call void @llvm.lifetime.start.p0(i64 8, ptr %3) #12
  %6 = load ptr, ptr %2, align 8, !tbaa !150
  %7 = getelementptr inbounds nuw %struct.client, ptr %6, i32 0, i32 16
  %8 = load ptr, ptr %7, align 8, !tbaa !151
  %9 = getelementptr inbounds ptr, ptr %8, i64 1
  %10 = load ptr, ptr %9, align 8, !tbaa !78
  store ptr %10, ptr %3, align 8, !tbaa !78
  call void @llvm.lifetime.start.p0(i64 8, ptr %4) #12
  %11 = load ptr, ptr %2, align 8, !tbaa !150
  %12 = load ptr, ptr %3, align 8, !tbaa !78
  %13 = load ptr, ptr getelementptr inbounds nuw (%struct.sharedObjectsStruct, ptr @shared, i32 0, i32 3), align 8, !tbaa !169
  %14 = call ptr @lookupKeyReadOrReply(ptr noundef %11, ptr noundef %12, ptr noundef %13)
  store ptr %14, ptr %4, align 8, !tbaa !78
  %15 = icmp eq ptr %14, null
  br i1 %15, label %21, label %16

16:                                               ; preds = %1
  %17 = load ptr, ptr %2, align 8, !tbaa !150
  %18 = load ptr, ptr %4, align 8, !tbaa !78
  %19 = call i32 @checkType(ptr noundef %17, ptr noundef %18, i32 noundef 3)
  %20 = icmp ne i32 %19, 0
  br i1 %20, label %21, label %22

21:                                               ; preds = %16, %1
  store i32 1, ptr %5, align 4
  br label %26

22:                                               ; preds = %16
  %23 = load ptr, ptr %2, align 8, !tbaa !150
  %24 = load ptr, ptr %4, align 8, !tbaa !78
  %25 = call i64 @zsetLength(ptr noundef %24)
  call void @addReplyLongLong(ptr noundef %23, i64 noundef %25)
  store i32 0, ptr %5, align 4
  br label %26

26:                                               ; preds = %22, %21
  call void @llvm.lifetime.end.p0(i64 8, ptr %4) #12
  call void @llvm.lifetime.end.p0(i64 8, ptr %3) #12
  %27 = load i32, ptr %5, align 4
  switch i32 %27, label %29 [
    i32 0, label %28
    i32 1, label %28
  ]

28:                                               ; preds = %26, %26
  ret void

29:                                               ; preds = %26
  unreachable
}