; Function Attrs: nounwind uwtable
define dso_local void @zcardCommand(ptr noundef %0) local_unnamed_addr #0 {
  %2 = getelementptr inbounds nuw i8, ptr %0, i64 96
  %3 = load ptr, ptr %2, align 8, !tbaa !136
  %4 = getelementptr inbounds nuw i8, ptr %3, i64 8
  %5 = load ptr, ptr %4, align 8, !tbaa !146
  %6 = load ptr, ptr getelementptr inbounds nuw (i8, ptr @shared, i64 24), align 8, !tbaa !155
  %7 = tail call ptr @lookupKeyReadOrReply(ptr noundef %0, ptr noundef %5, ptr noundef %6) #18
  %8 = icmp eq ptr %7, null
  br i1 %8, label %29, label %9

9:                                                ; preds = %1
  %10 = tail call i32 @checkType(ptr noundef nonnull %0, ptr noundef nonnull %7, i32 noundef 3) #18
  %.not = icmp eq i32 %10, 0
  br i1 %.not, label %11, label %29

11:                                               ; preds = %9
  %12 = load i32, ptr %7, align 8
  %13 = lshr i32 %12, 4
  %14 = and i32 %13, 15
  switch i32 %14, label %28 [
    i32 11, label %15
    i32 7, label %21
  ]

15:                                               ; preds = %11
  %16 = getelementptr inbounds nuw i8, ptr %7, i64 8
  %17 = load ptr, ptr %16, align 8, !tbaa !75
  %18 = tail call i64 @lpLength(ptr noundef %17) #18
  %19 = lshr i64 %18, 1
  %20 = and i64 %19, 4294967295
  br label %zsetLength.exit

21:                                               ; preds = %11
  %22 = getelementptr inbounds nuw i8, ptr %7, i64 8
  %23 = load ptr, ptr %22, align 8, !tbaa !75
  %24 = getelementptr inbounds nuw i8, ptr %23, i64 8
  %25 = load ptr, ptr %24, align 8, !tbaa !97
  %26 = getelementptr inbounds nuw i8, ptr %25, i64 16
  %27 = load i64, ptr %26, align 8, !tbaa !17
  br label %zsetLength.exit

28:                                               ; preds = %11
  tail call void (ptr, i32, ptr, ...) @_serverPanic(ptr noundef nonnull @.str.1, i32 noundef 1210, ptr noundef nonnull @.str.9) #18
  tail call void @abort() #19
  unreachable

zsetLength.exit:                                  ; preds = %15, %21
  %.0.i = phi i64 [ %20, %15 ], [ %27, %21 ]
  tail call void @addReplyLongLong(ptr noundef nonnull %0, i64 noundef %.0.i) #18
  br label %29

29:                                               ; preds = %1, %9, %zsetLength.exit
  ret void
}